target datalayout = "e-m:e-p270:32:32-p271:32:32-p272:64:64-i64:64-i128:128-f80:128-n8:16:32:64-S128"
target triple = "x86_64-pc-linux-gnu"

%class.JSON = type <{ ptr, ptr, ptr, ptr, ptr, i32, i32, i32, i8, i8, [2 x i8] }>

; Function Attrs: mustprogress nounwind uwtable
define hidden void @_ZN4JSON8mark_posEv(ptr noundef nonnull align 8 dereferenceable(54) %0) #1 align 2 {
  %2 = alloca ptr, align 8
  %3 = alloca i8, align 1
  store ptr %0, ptr %2, align 8
  %4 = load ptr, ptr %2, align 8
  br label %5

5:                                                ; preds = %34, %1
  %6 = getelementptr inbounds %class.JSON, ptr %4, i32 0, i32 4
  %7 = load ptr, ptr %6, align 8
  %8 = getelementptr inbounds %class.JSON, ptr %4, i32 0, i32 3
  %9 = load ptr, ptr %8, align 8
  %10 = icmp ult ptr %7, %9
  br i1 %10, label %11, label %35

11:                                               ; preds = %5
  %12 = getelementptr inbounds %class.JSON, ptr %4, i32 0, i32 4
  %13 = load ptr, ptr %12, align 8
  %14 = load i8, ptr %13, align 1
  store i8 %14, ptr %3, align 1
  %15 = load i8, ptr %3, align 1
  %16 = zext i8 %15 to i32
  %17 = icmp ne i32 %16, 0
  br i1 %17, label %18, label %25

18:                                               ; preds = %11
  %19 = getelementptr inbounds %class.JSON, ptr %4, i32 0, i32 4
  %20 = load ptr, ptr %19, align 8
  %21 = getelementptr inbounds i8, ptr %20, i32 1
  store ptr %21, ptr %19, align 8
  %22 = getelementptr inbounds %class.JSON, ptr %4, i32 0, i32 7
  %23 = load i32, ptr %22, align 8
  %24 = add i32 %23, 1
  store i32 %24, ptr %22, align 8
  br label %25

25:                                               ; preds = %18, %11
  %26 = load i8, ptr %3, align 1
  %27 = zext i8 %26 to i32
  %28 = icmp eq i32 %27, 10
  br i1 %28, label %29, label %34

29:                                               ; preds = %25
  %30 = getelementptr inbounds %class.JSON, ptr %4, i32 0, i32 6
  %31 = load i32, ptr %30, align 4
  %32 = add i32 %31, 1
  store i32 %32, ptr %30, align 4
  %33 = getelementptr inbounds %class.JSON, ptr %4, i32 0, i32 7
  store i32 0, ptr %33, align 8
  br label %34

34:                                               ; preds = %29, %25
  br label %5, !llvm.loop !10

35:                                               ; preds = %5
  ret void
}