; Function Attrs: mustprogress nofree norecurse nosync nounwind memory(read, argmem: readwrite, inaccessiblemem: none) uwtable
define hidden void @_ZN4JSON8mark_posEv(ptr nocapture noundef nonnull align 8 dereferenceable(54) %0) local_unnamed_addr #3 align 2 {
  %2 = getelementptr inbounds i8, ptr %0, i64 32
  %3 = getelementptr inbounds i8, ptr %0, i64 24
  %4 = load ptr, ptr %3, align 8
  %.promoted = load ptr, ptr %2, align 8
  %5 = icmp ult ptr %.promoted, %4
  br i1 %5, label %.lr.ph, label %._crit_edge

.lr.ph:                                           ; preds = %1
  %6 = getelementptr inbounds i8, ptr %0, i64 48
  %7 = getelementptr inbounds i8, ptr %0, i64 44
  %.promoted2 = load i32, ptr %6, align 8
  %.promoted3 = load i32, ptr %7, align 4
  br label %8

8:                                                ; preds = %.lr.ph, %19
  %9 = phi i32 [ %.promoted3, %.lr.ph ], [ %20, %19 ]
  %10 = phi i32 [ %.promoted2, %.lr.ph ], [ %21, %19 ]
  %11 = phi ptr [ %.promoted, %.lr.ph ], [ %22, %19 ]
  %12 = load i8, ptr %11, align 1
  %cond = icmp eq i8 %12, 0
  br i1 %cond, label %19, label %13

13:                                               ; preds = %8
  %14 = getelementptr inbounds i8, ptr %11, i64 1
  store ptr %14, ptr %2, align 8
  %15 = add i32 %10, 1
  store i32 %15, ptr %6, align 8
  %16 = icmp eq i8 %12, 10
  br i1 %16, label %17, label %19

17:                                               ; preds = %13
  %18 = add i32 %9, 1
  store i32 %18, ptr %7, align 4
  store i32 0, ptr %6, align 8
  br label %19

19:                                               ; preds = %8, %17, %13
  %20 = phi i32 [ %9, %8 ], [ %18, %17 ], [ %9, %13 ]
  %21 = phi i32 [ %10, %8 ], [ 0, %17 ], [ %15, %13 ]
  %22 = phi ptr [ %11, %8 ], [ %14, %17 ], [ %14, %13 ]
  %23 = icmp ult ptr %22, %4
  br i1 %23, label %8, label %._crit_edge, !llvm.loop !9

._crit_edge:                                      ; preds = %19, %1
  ret void
}